; ModuleID = '31/1905.c'
source_filename = "31/1905.c"
target datalayout = "e-m:e-p270:32:32-p271:32:32-p272:64:64-i64:64-f80:128-n8:16:32:64-S128"
target triple = "x86_64-pc-linux-gnu"

%struct.student = type { [50 x i8], [50 x i8], i8, i32, [10 x i8], [20 x i8], %struct.student* }

@.str = private unnamed_addr constant [18 x i8] c"%s %s %c %d %s %s\00", align 1
@.str.1 = private unnamed_addr constant [3 x i8] c"%s\00", align 1
@.str.2 = private unnamed_addr constant [4 x i8] c"end\00", align 1
@.str.3 = private unnamed_addr constant [15 x i8] c"%s %c %d %s %s\00", align 1
@.str.4 = private unnamed_addr constant [19 x i8] c"%s %s %c %d %s %s\0A\00", align 1

; Function Attrs: noinline nounwind uwtable
define dso_local i32 @main() #0 {
  %1 = alloca i32, align 4
  %2 = alloca %struct.student*, align 8
  %3 = alloca %struct.student*, align 8
  store i32 0, i32* %1, align 4
  %4 = call noalias i8* @malloc(i64 100) #4
  %5 = bitcast i8* %4 to %struct.student*
  store %struct.student* %5, %struct.student** %3, align 8
  %6 = load %struct.student*, %struct.student** %3, align 8
  %7 = getelementptr inbounds %struct.student, %struct.student* %6, i32 0, i32 0
  %8 = getelementptr inbounds [50 x i8], [50 x i8]* %7, i64 0, i64 0
  %9 = load %struct.student*, %struct.student** %3, align 8
  %10 = getelementptr inbounds %struct.student, %struct.student* %9, i32 0, i32 1
  %11 = getelementptr inbounds [50 x i8], [50 x i8]* %10, i64 0, i64 0
  %12 = load %struct.student*, %struct.student** %3, align 8
  %13 = getelementptr inbounds %struct.student, %struct.student* %12, i32 0, i32 2
  %14 = load %struct.student*, %struct.student** %3, align 8
  %15 = getelementptr inbounds %struct.student, %struct.student* %14, i32 0, i32 3
  %16 = load %struct.student*, %struct.student** %3, align 8
  %17 = getelementptr inbounds %struct.student, %struct.student* %16, i32 0, i32 4
  %18 = getelementptr inbounds [10 x i8], [10 x i8]* %17, i64 0, i64 0
  %19 = load %struct.student*, %struct.student** %3, align 8
  %20 = getelementptr inbounds %struct.student, %struct.student* %19, i32 0, i32 5
  %21 = getelementptr inbounds [20 x i8], [20 x i8]* %20, i64 0, i64 0
  %22 = call i32 (i8*, ...) @__isoc99_scanf(i8* getelementptr inbounds ([18 x i8], [18 x i8]* @.str, i64 0, i64 0), i8* %8, i8* %11, i8* %13, i32* %15, i8* %18, i8* %21)
  %23 = load %struct.student*, %struct.student** %3, align 8
  %24 = getelementptr inbounds %struct.student, %struct.student* %23, i32 0, i32 6
  store %struct.student* null, %struct.student** %24, align 8
  %25 = load %struct.student*, %struct.student** %3, align 8
  store %struct.student* %25, %struct.student** %2, align 8
  %26 = call noalias i8* @malloc(i64 100) #4
  %27 = bitcast i8* %26 to %struct.student*
  store %struct.student* %27, %struct.student** %3, align 8
  %28 = load %struct.student*, %struct.student** %3, align 8
  %29 = getelementptr inbounds %struct.student, %struct.student* %28, i32 0, i32 0
  %30 = getelementptr inbounds [50 x i8], [50 x i8]* %29, i64 0, i64 0
  %31 = call i32 (i8*, ...) @__isoc99_scanf(i8* getelementptr inbounds ([3 x i8], [3 x i8]* @.str.1, i64 0, i64 0), i8* %30)
  br label %32

32:                                               ; preds = %38, %0
  %33 = load %struct.student*, %struct.student** %3, align 8
  %34 = getelementptr inbounds %struct.student, %struct.student* %33, i32 0, i32 0
  %35 = getelementptr inbounds [50 x i8], [50 x i8]* %34, i64 0, i64 0
  %36 = call i32 @strcmp(i8* %35, i8* getelementptr inbounds ([4 x i8], [4 x i8]* @.str.2, i64 0, i64 0)) #5
  %37 = icmp ne i32 %36, 0
  br i1 %37, label %38, label %63

38:                                               ; preds = %32
  %39 = load %struct.student*, %struct.student** %3, align 8
  %40 = getelementptr inbounds %struct.student, %struct.student* %39, i32 0, i32 1
  %41 = getelementptr inbounds [50 x i8], [50 x i8]* %40, i64 0, i64 0
  %42 = load %struct.student*, %struct.student** %3, align 8
  %43 = getelementptr inbounds %struct.student, %struct.student* %42, i32 0, i32 2
  %44 = load %struct.student*, %struct.student** %3, align 8
  %45 = getelementptr inbounds %struct.student, %struct.student* %44, i32 0, i32 3
  %46 = load %struct.student*, %struct.student** %3, align 8
  %47 = getelementptr inbounds %struct.student, %struct.student* %46, i32 0, i32 4
  %48 = getelementptr inbounds [10 x i8], [10 x i8]* %47, i64 0, i64 0
  %49 = load %struct.student*, %struct.student** %3, align 8
  %50 = getelementptr inbounds %struct.student, %struct.student* %49, i32 0, i32 5
  %51 = getelementptr inbounds [20 x i8], [20 x i8]* %50, i64 0, i64 0
  %52 = call i32 (i8*, ...) @__isoc99_scanf(i8* getelementptr inbounds ([15 x i8], [15 x i8]* @.str.3, i64 0, i64 0), i8* %41, i8* %43, i32* %45, i8* %48, i8* %51)
  %53 = load %struct.student*, %struct.student** %2, align 8
  %54 = load %struct.student*, %struct.student** %3, align 8
  %55 = getelementptr inbounds %struct.student, %struct.student* %54, i32 0, i32 6
  store %struct.student* %53, %struct.student** %55, align 8
  %56 = load %struct.student*, %struct.student** %3, align 8
  store %struct.student* %56, %struct.student** %2, align 8
  %57 = call noalias i8* @malloc(i64 100) #4
  %58 = bitcast i8* %57 to %struct.student*
  store %struct.student* %58, %struct.student** %3, align 8
  %59 = load %struct.student*, %struct.student** %3, align 8
  %60 = getelementptr inbounds %struct.student, %struct.student* %59, i32 0, i32 0
  %61 = getelementptr inbounds [50 x i8], [50 x i8]* %60, i64 0, i64 0
  %62 = call i32 (i8*, ...) @__isoc99_scanf(i8* getelementptr inbounds ([3 x i8], [3 x i8]* @.str.1, i64 0, i64 0), i8* %61)
  br label %32

63:                                               ; preds = %32
  %64 = load %struct.student*, %struct.student** %2, align 8
  %65 = getelementptr inbounds %struct.student, %struct.student* %64, i32 0, i32 0
  %66 = getelementptr inbounds [50 x i8], [50 x i8]* %65, i64 0, i64 0
  %67 = load %struct.student*, %struct.student** %2, align 8
  %68 = getelementptr inbounds %struct.student, %struct.student* %67, i32 0, i32 1
  %69 = getelementptr inbounds [50 x i8], [50 x i8]* %68, i64 0, i64 0
  %70 = load %struct.student*, %struct.student** %2, align 8
  %71 = getelementptr inbounds %struct.student, %struct.student* %70, i32 0, i32 2
  %72 = load i8, i8* %71, align 4
  %73 = sext i8 %72 to i32
  %74 = load %struct.student*, %struct.student** %2, align 8
  %75 = getelementptr inbounds %struct.student, %struct.student* %74, i32 0, i32 3
  %76 = load i32, i32* %75, align 8
  %77 = load %struct.student*, %struct.student** %2, align 8
  %78 = getelementptr inbounds %struct.student, %struct.student* %77, i32 0, i32 4
  %79 = getelementptr inbounds [10 x i8], [10 x i8]* %78, i64 0, i64 0
  %80 = load %struct.student*, %struct.student** %2, align 8
  %81 = getelementptr inbounds %struct.student, %struct.student* %80, i32 0, i32 5
  %82 = getelementptr inbounds [20 x i8], [20 x i8]* %81, i64 0, i64 0
  %83 = call i32 (i8*, ...) @printf(i8* getelementptr inbounds ([19 x i8], [19 x i8]* @.str.4, i64 0, i64 0), i8* %66, i8* %69, i32 %73, i32 %76, i8* %79, i8* %82)
  br label %84

84:                                               ; preds = %89, %63
  %85 = load %struct.student*, %struct.student** %2, align 8
  %86 = getelementptr inbounds %struct.student, %struct.student* %85, i32 0, i32 6
  %87 = load %struct.student*, %struct.student** %86, align 8
  %88 = icmp ne %struct.student* %87, null
  br i1 %88, label %89, label %113

89:                                               ; preds = %84
  %90 = load %struct.student*, %struct.student** %2, align 8
  %91 = getelementptr inbounds %struct.student, %struct.student* %90, i32 0, i32 6
  %92 = load %struct.student*, %struct.student** %91, align 8
  store %struct.student* %92, %struct.student** %2, align 8
  %93 = load %struct.student*, %struct.student** %2, align 8
  %94 = getelementptr inbounds %struct.student, %struct.student* %93, i32 0, i32 0
  %95 = getelementptr inbounds [50 x i8], [50 x i8]* %94, i64 0, i64 0
  %96 = load %struct.student*, %struct.student** %2, align 8
  %97 = getelementptr inbounds %struct.student, %struct.student* %96, i32 0, i32 1
  %98 = getelementptr inbounds [50 x i8], [50 x i8]* %97, i64 0, i64 0
  %99 = load %struct.student*, %struct.student** %2, align 8
  %100 = getelementptr inbounds %struct.student, %struct.student* %99, i32 0, i32 2
  %101 = load i8, i8* %100, align 4
  %102 = sext i8 %101 to i32
  %103 = load %struct.student*, %struct.student** %2, align 8
  %104 = getelementptr inbounds %struct.student, %struct.student* %103, i32 0, i32 3
  %105 = load i32, i32* %104, align 8
  %106 = load %struct.student*, %struct.student** %2, align 8
  %107 = getelementptr inbounds %struct.student, %struct.student* %106, i32 0, i32 4
  %108 = getelementptr inbounds [10 x i8], [10 x i8]* %107, i64 0, i64 0
  %109 = load %struct.student*, %struct.student** %2, align 8
  %110 = getelementptr inbounds %struct.student, %struct.student* %109, i32 0, i32 5
  %111 = getelementptr inbounds [20 x i8], [20 x i8]* %110, i64 0, i64 0
  %112 = call i32 (i8*, ...) @printf(i8* getelementptr inbounds ([19 x i8], [19 x i8]* @.str.4, i64 0, i64 0), i8* %95, i8* %98, i32 %102, i32 %105, i8* %108, i8* %111)
  br label %84

113:                                              ; preds = %84
  ret i32 0
}

; Function Attrs: nounwind
declare dso_local noalias i8* @malloc(i64) #1

declare dso_local i32 @__isoc99_scanf(i8*, ...) #2

; Function Attrs: nounwind readonly
declare dso_local i32 @strcmp(i8*, i8*) #3

declare dso_local i32 @printf(i8*, ...) #2


!llvm.module.flags = !{!0}
!llvm.ident = !{!1}

!0 = !{i32 1, !"wchar_size", i32 4}
!1 = !{!"clang version 10.0.0-4ubuntu1 "}
